target datalayout = "e-m:e-p270:32:32-p271:32:32-p272:64:64-i64:64-i128:128-f80:128-n8:16:32:64-S128"
target triple = "x86_64-pc-linux-gnu"

%struct.JNINativeInterface_ = type { ptr, ptr, ptr, ptr, ptr, ptr, ptr, ptr, ptr, ptr, ptr, ptr, ptr, ptr, ptr, ptr, ptr, ptr, ptr, ptr, ptr, ptr, ptr, ptr, ptr, ptr, ptr, ptr, ptr, ptr, ptr, ptr, ptr, ptr, ptr, ptr, ptr, ptr, ptr, ptr, ptr, ptr, ptr, ptr, ptr, ptr, ptr, ptr, ptr, ptr, ptr, ptr, ptr, ptr, ptr, ptr, ptr, ptr, ptr, ptr, ptr, ptr, ptr, ptr, ptr, ptr, ptr, ptr, ptr, ptr, ptr, ptr, ptr, ptr, ptr, ptr, ptr, ptr, ptr, ptr, ptr, ptr, ptr, ptr, ptr, ptr, ptr, ptr, ptr, ptr, ptr, ptr, ptr, ptr, ptr, ptr, ptr, ptr, ptr, ptr, ptr, ptr, ptr, ptr, ptr, ptr, ptr, ptr, ptr, ptr, ptr, ptr, ptr, ptr, ptr, ptr, ptr, ptr, ptr, ptr, ptr, ptr, ptr, ptr, ptr, ptr, ptr, ptr, ptr, ptr, ptr, ptr, ptr, ptr, ptr, ptr, ptr, ptr, ptr, ptr, ptr, ptr, ptr, ptr, ptr, ptr, ptr, ptr, ptr, ptr, ptr, ptr, ptr, ptr, ptr, ptr, ptr, ptr, ptr, ptr, ptr, ptr, ptr, ptr, ptr, ptr, ptr, ptr, ptr, ptr, ptr, ptr, ptr, ptr, ptr, ptr, ptr, ptr, ptr, ptr, ptr, ptr, ptr, ptr, ptr, ptr, ptr, ptr, ptr, ptr, ptr, ptr, ptr, ptr, ptr, ptr, ptr, ptr, ptr, ptr, ptr, ptr, ptr, ptr, ptr, ptr, ptr, ptr, ptr, ptr, ptr, ptr, ptr, ptr, ptr, ptr, ptr, ptr, ptr, ptr, ptr, ptr, ptr, ptr, ptr, ptr, ptr, ptr, ptr, ptr, ptr, ptr, ptr, ptr, ptr }
%struct.JNIInvokeInterface_ = type { ptr, ptr, ptr, ptr, ptr, ptr, ptr, ptr }

@.str = private unnamed_addr constant [49 x i8] c"sun/security/pkcs11/wrapper/CK_C_INITIALIZE_ARGS\00", align 1
@.str.1 = private unnamed_addr constant [12 x i8] c"CreateMutex\00", align 1
@.str.2 = private unnamed_addr constant [45 x i8] c"Lsun/security/pkcs11/wrapper/CK_CREATEMUTEX;\00", align 1
@jInitArgsObject = hidden global ptr null, align 8
@jvm_j2pkcs11 = external global ptr, align 8
@.str.13 = private unnamed_addr constant [43 x i8] c"sun/security/pkcs11/wrapper/CK_CREATEMUTEX\00", align 1
@.str.14 = private unnamed_addr constant [15 x i8] c"CK_CREATEMUTEX\00", align 1
@.str.15 = private unnamed_addr constant [21 x i8] c"()Ljava/lang/Object;\00", align 1
@.str.16 = private unnamed_addr constant [44 x i8] c"sun/security/pkcs11/wrapper/PKCS11Exception\00", align 1
@.str.17 = private unnamed_addr constant [13 x i8] c"getErrorCode\00", align 1
@.str.18 = private unnamed_addr constant [4 x i8] c"()J\00", align 1

; Function Attrs: nounwind uwtable
define hidden i64 @callJCreateMutex(ptr noundef %0) #0 {
  %2 = alloca i64, align 8
  %3 = alloca ptr, align 8
  %4 = alloca ptr, align 8
  %5 = alloca i32, align 4
  %6 = alloca ptr, align 8
  %7 = alloca ptr, align 8
  %8 = alloca i64, align 8
  %9 = alloca i64, align 8
  %10 = alloca i32, align 4
  %11 = alloca ptr, align 8
  %12 = alloca ptr, align 8
  %13 = alloca ptr, align 8
  %14 = alloca ptr, align 8
  %15 = alloca ptr, align 8
  %16 = alloca ptr, align 8
  store ptr %0, ptr %3, align 8
  store i64 0, ptr %9, align 8
  store i32 1, ptr %10, align 4
  %17 = load ptr, ptr @jvm_j2pkcs11, align 8
  %18 = icmp eq ptr %17, null
  br i1 %18, label %19, label %21

19:                                               ; preds = %1
  %20 = load i64, ptr %9, align 8
  store i64 %20, ptr %2, align 8
  br label %174

21:                                               ; preds = %1
  %22 = load ptr, ptr @jvm_j2pkcs11, align 8
  %23 = load ptr, ptr %22, align 8
  %24 = getelementptr inbounds %struct.JNIInvokeInterface_, ptr %23, i32 0, i32 6
  %25 = load ptr, ptr %24, align 8
  %26 = load ptr, ptr @jvm_j2pkcs11, align 8
  %27 = call i32 %25(ptr noundef %26, ptr noundef %4, i32 noundef 65538)
  store i32 %27, ptr %5, align 4
  %28 = load i32, ptr %5, align 4
  %29 = icmp eq i32 %28, -2
  br i1 %29, label %30, label %37

30:                                               ; preds = %21
  store i32 0, ptr %10, align 4
  %31 = load ptr, ptr @jvm_j2pkcs11, align 8
  %32 = load ptr, ptr %31, align 8
  %33 = getelementptr inbounds %struct.JNIInvokeInterface_, ptr %32, i32 0, i32 4
  %34 = load ptr, ptr %33, align 8
  %35 = load ptr, ptr @jvm_j2pkcs11, align 8
  %36 = call i32 %34(ptr noundef %35, ptr noundef %4, ptr noundef null)
  store i32 %36, ptr %5, align 4
  br label %49

37:                                               ; preds = %21
  %38 = load i32, ptr %5, align 4
  %39 = icmp eq i32 %38, -3
  br i1 %39, label %40, label %47

40:                                               ; preds = %37
  store i32 1, ptr %10, align 4
  %41 = load ptr, ptr @jvm_j2pkcs11, align 8
  %42 = load ptr, ptr %41, align 8
  %43 = getelementptr inbounds %struct.JNIInvokeInterface_, ptr %42, i32 0, i32 4
  %44 = load ptr, ptr %43, align 8
  %45 = load ptr, ptr @jvm_j2pkcs11, align 8
  %46 = call i32 %44(ptr noundef %45, ptr noundef %4, ptr noundef null)
  store i32 %46, ptr %5, align 4
  br label %48

47:                                               ; preds = %37
  store i32 1, ptr %10, align 4
  br label %48

48:                                               ; preds = %47, %40
  br label %49

49:                                               ; preds = %48, %30
  %50 = load ptr, ptr %4, align 8
  %51 = load ptr, ptr %50, align 8
  %52 = getelementptr inbounds %struct.JNINativeInterface_, ptr %51, i32 0, i32 6
  %53 = load ptr, ptr %52, align 8
  %54 = load ptr, ptr %4, align 8
  %55 = call ptr %53(ptr noundef %54, ptr noundef @.str.13)
  store ptr %55, ptr %11, align 8
  %56 = load ptr, ptr %11, align 8
  %57 = icmp eq ptr %56, null
  br i1 %57, label %58, label %60

58:                                               ; preds = %49
  %59 = load i64, ptr %9, align 8
  store i64 %59, ptr %2, align 8
  br label %174

60:                                               ; preds = %49
  %61 = load ptr, ptr %4, align 8
  %62 = load ptr, ptr %61, align 8
  %63 = getelementptr inbounds %struct.JNINativeInterface_, ptr %62, i32 0, i32 6
  %64 = load ptr, ptr %63, align 8
  %65 = load ptr, ptr %4, align 8
  %66 = call ptr %64(ptr noundef %65, ptr noundef @.str)
  store ptr %66, ptr %12, align 8
  %67 = load ptr, ptr %12, align 8
  %68 = icmp eq ptr %67, null
  br i1 %68, label %69, label %71

69:                                               ; preds = %60
  %70 = load i64, ptr %9, align 8
  store i64 %70, ptr %2, align 8
  br label %174

71:                                               ; preds = %60
  %72 = load ptr, ptr %4, align 8
  %73 = load ptr, ptr %72, align 8
  %74 = getelementptr inbounds %struct.JNINativeInterface_, ptr %73, i32 0, i32 94
  %75 = load ptr, ptr %74, align 8
  %76 = load ptr, ptr %4, align 8
  %77 = load ptr, ptr %12, align 8
  %78 = call ptr %75(ptr noundef %76, ptr noundef %77, ptr noundef @.str.1, ptr noundef @.str.2)
  store ptr %78, ptr %14, align 8
  %79 = load ptr, ptr %14, align 8
  %80 = icmp eq ptr %79, null
  br i1 %80, label %81, label %83

81:                                               ; preds = %71
  %82 = load i64, ptr %9, align 8
  store i64 %82, ptr %2, align 8
  br label %174

83:                                               ; preds = %71
  %84 = load ptr, ptr %4, align 8
  %85 = load ptr, ptr %84, align 8
  %86 = getelementptr inbounds %struct.JNINativeInterface_, ptr %85, i32 0, i32 95
  %87 = load ptr, ptr %86, align 8
  %88 = load ptr, ptr %4, align 8
  %89 = load ptr, ptr @jInitArgsObject, align 8
  %90 = load ptr, ptr %14, align 8
  %91 = call ptr %87(ptr noundef %88, ptr noundef %89, ptr noundef %90)
  store ptr %91, ptr %15, align 8
  %92 = load ptr, ptr %4, align 8
  %93 = load ptr, ptr %92, align 8
  %94 = getelementptr inbounds %struct.JNINativeInterface_, ptr %93, i32 0, i32 33
  %95 = load ptr, ptr %94, align 8
  %96 = load ptr, ptr %4, align 8
  %97 = load ptr, ptr %11, align 8
  %98 = call ptr %95(ptr noundef %96, ptr noundef %97, ptr noundef @.str.14, ptr noundef @.str.15)
  store ptr %98, ptr %13, align 8
  %99 = load ptr, ptr %13, align 8
  %100 = icmp eq ptr %99, null
  br i1 %100, label %101, label %103

101:                                              ; preds = %83
  %102 = load i64, ptr %9, align 8
  store i64 %102, ptr %2, align 8
  br label %174

103:                                              ; preds = %83
  %104 = load ptr, ptr %4, align 8
  %105 = load ptr, ptr %104, align 8
  %106 = getelementptr inbounds %struct.JNINativeInterface_, ptr %105, i32 0, i32 34
  %107 = load ptr, ptr %106, align 8
  %108 = load ptr, ptr %4, align 8
  %109 = load ptr, ptr %15, align 8
  %110 = load ptr, ptr %13, align 8
  %111 = call ptr (ptr, ptr, ptr, ...) %107(ptr noundef %108, ptr noundef %109, ptr noundef %110)
  store ptr %111, ptr %16, align 8
  %112 = load ptr, ptr %4, align 8
  %113 = load ptr, ptr %112, align 8
  %114 = getelementptr inbounds %struct.JNINativeInterface_, ptr %113, i32 0, i32 21
  %115 = load ptr, ptr %114, align 8
  %116 = load ptr, ptr %4, align 8
  %117 = load ptr, ptr %16, align 8
  %118 = call ptr %115(ptr noundef %116, ptr noundef %117)
  store ptr %118, ptr %16, align 8
  %119 = load ptr, ptr %16, align 8
  %120 = load ptr, ptr %3, align 8
  store ptr %119, ptr %120, align 8
  %121 = load ptr, ptr %4, align 8
  %122 = load ptr, ptr %121, align 8
  %123 = getelementptr inbounds %struct.JNINativeInterface_, ptr %122, i32 0, i32 15
  %124 = load ptr, ptr %123, align 8
  %125 = load ptr, ptr %4, align 8
  %126 = call ptr %124(ptr noundef %125)
  store ptr %126, ptr %6, align 8
  %127 = load ptr, ptr %6, align 8
  %128 = icmp ne ptr %127, null
  br i1 %128, label %129, label %162

129:                                              ; preds = %103
  %130 = load ptr, ptr %4, align 8
  %131 = load ptr, ptr %130, align 8
  %132 = getelementptr inbounds %struct.JNINativeInterface_, ptr %131, i32 0, i32 6
  %133 = load ptr, ptr %132, align 8
  %134 = load ptr, ptr %4, align 8
  %135 = call ptr %133(ptr noundef %134, ptr noundef @.str.16)
  store ptr %135, ptr %7, align 8
  %136 = load ptr, ptr %7, align 8
  %137 = icmp eq ptr %136, null
  br i1 %137, label %138, label %140

138:                                              ; preds = %129
  %139 = load i64, ptr %9, align 8
  store i64 %139, ptr %2, align 8
  br label %174

140:                                              ; preds = %129
  %141 = load ptr, ptr %4, align 8
  %142 = load ptr, ptr %141, align 8
  %143 = getelementptr inbounds %struct.JNINativeInterface_, ptr %142, i32 0, i32 33
  %144 = load ptr, ptr %143, align 8
  %145 = load ptr, ptr %4, align 8
  %146 = load ptr, ptr %7, align 8
  %147 = call ptr %144(ptr noundef %145, ptr noundef %146, ptr noundef @.str.17, ptr noundef @.str.18)
  store ptr %147, ptr %13, align 8
  %148 = load ptr, ptr %13, align 8
  %149 = icmp eq ptr %148, null
  br i1 %149, label %150, label %152

150:                                              ; preds = %140
  %151 = load i64, ptr %9, align 8
  store i64 %151, ptr %2, align 8
  br label %174

152:                                              ; preds = %140
  %153 = load ptr, ptr %4, align 8
  %154 = load ptr, ptr %153, align 8
  %155 = getelementptr inbounds %struct.JNINativeInterface_, ptr %154, i32 0, i32 52
  %156 = load ptr, ptr %155, align 8
  %157 = load ptr, ptr %4, align 8
  %158 = load ptr, ptr %6, align 8
  %159 = load ptr, ptr %13, align 8
  %160 = call i64 (ptr, ptr, ptr, ...) %156(ptr noundef %157, ptr noundef %158, ptr noundef %159)
  store i64 %160, ptr %8, align 8
  %161 = load i64, ptr %8, align 8
  store i64 %161, ptr %9, align 8
  br label %162

162:                                              ; preds = %152, %103
  %163 = load i32, ptr %10, align 4
  %164 = icmp ne i32 %163, 0
  br i1 %164, label %165, label %172

165:                                              ; preds = %162
  %166 = load ptr, ptr @jvm_j2pkcs11, align 8
  %167 = load ptr, ptr %166, align 8
  %168 = getelementptr inbounds %struct.JNIInvokeInterface_, ptr %167, i32 0, i32 5
  %169 = load ptr, ptr %168, align 8
  %170 = load ptr, ptr @jvm_j2pkcs11, align 8
  %171 = call i32 %169(ptr noundef %170)
  store i32 %171, ptr %5, align 4
  br label %172

172:                                              ; preds = %165, %162
  %173 = load i64, ptr %9, align 8
  store i64 %173, ptr %2, align 8
  br label %174

174:                                              ; preds = %172, %150, %138, %101, %81, %69, %58, %19
  %175 = load i64, ptr %2, align 8
  ret i64 %175
}