; Function Attrs: nounwind uwtable
define hidden i64 @callJCreateMutex(ptr nocapture noundef writeonly %0) #0 {
  %2 = alloca ptr, align 8
  %3 = load ptr, ptr @jvm_j2pkcs11, align 8
  %4 = icmp eq ptr %3, null
  br i1 %4, label %93, label %5

5:                                                ; preds = %1
  %6 = load ptr, ptr %3, align 8
  %7 = getelementptr inbounds i8, ptr %6, i64 48
  %8 = load ptr, ptr %7, align 8
  %9 = call i32 %8(ptr noundef nonnull %3, ptr noundef nonnull %2, i32 noundef 65538) #7
  %10 = icmp eq i32 %9, -2
  %.off = add i32 %9, 3
  %switch = icmp ult i32 %.off, 2
  br i1 %switch, label %.sink.split, label %16

.sink.split:                                      ; preds = %5
  %11 = load ptr, ptr @jvm_j2pkcs11, align 8
  %12 = load ptr, ptr %11, align 8
  %13 = getelementptr inbounds i8, ptr %12, i64 32
  %14 = load ptr, ptr %13, align 8
  %15 = call i32 %14(ptr noundef nonnull %11, ptr noundef nonnull %2, ptr noundef null) #7
  br label %16

16:                                               ; preds = %5, %.sink.split
  %17 = load ptr, ptr %2, align 8
  %18 = load ptr, ptr %17, align 8
  %19 = getelementptr inbounds i8, ptr %18, i64 48
  %20 = load ptr, ptr %19, align 8
  %21 = call ptr %20(ptr noundef nonnull %17, ptr noundef nonnull @.str.13) #7
  %22 = icmp eq ptr %21, null
  br i1 %22, label %93, label %23

23:                                               ; preds = %16
  %24 = load ptr, ptr %2, align 8
  %25 = load ptr, ptr %24, align 8
  %26 = getelementptr inbounds i8, ptr %25, i64 48
  %27 = load ptr, ptr %26, align 8
  %28 = call ptr %27(ptr noundef nonnull %24, ptr noundef nonnull @.str) #7
  %29 = icmp eq ptr %28, null
  br i1 %29, label %93, label %30

30:                                               ; preds = %23
  %31 = load ptr, ptr %2, align 8
  %32 = load ptr, ptr %31, align 8
  %33 = getelementptr inbounds i8, ptr %32, i64 752
  %34 = load ptr, ptr %33, align 8
  %35 = call ptr %34(ptr noundef nonnull %31, ptr noundef nonnull %28, ptr noundef nonnull @.str.1, ptr noundef nonnull @.str.2) #7
  %36 = icmp eq ptr %35, null
  br i1 %36, label %93, label %37

37:                                               ; preds = %30
  %38 = load ptr, ptr %2, align 8
  %39 = load ptr, ptr %38, align 8
  %40 = getelementptr inbounds i8, ptr %39, i64 760
  %41 = load ptr, ptr %40, align 8
  %42 = load ptr, ptr @jInitArgsObject, align 8
  %43 = call ptr %41(ptr noundef nonnull %38, ptr noundef %42, ptr noundef nonnull %35) #7
  %44 = load ptr, ptr %2, align 8
  %45 = load ptr, ptr %44, align 8
  %46 = getelementptr inbounds i8, ptr %45, i64 264
  %47 = load ptr, ptr %46, align 8
  %48 = call ptr %47(ptr noundef nonnull %44, ptr noundef nonnull %21, ptr noundef nonnull @.str.14, ptr noundef nonnull @.str.15) #7
  %49 = icmp eq ptr %48, null
  br i1 %49, label %93, label %50

50:                                               ; preds = %37
  %51 = load ptr, ptr %2, align 8
  %52 = load ptr, ptr %51, align 8
  %53 = getelementptr inbounds i8, ptr %52, i64 272
  %54 = load ptr, ptr %53, align 8
  %55 = call ptr (ptr, ptr, ptr, ...) %54(ptr noundef nonnull %51, ptr noundef %43, ptr noundef nonnull %48) #7
  %56 = load ptr, ptr %2, align 8
  %57 = load ptr, ptr %56, align 8
  %58 = getelementptr inbounds i8, ptr %57, i64 168
  %59 = load ptr, ptr %58, align 8
  %60 = call ptr %59(ptr noundef nonnull %56, ptr noundef %55) #7
  store ptr %60, ptr %0, align 8
  %61 = load ptr, ptr %2, align 8
  %62 = load ptr, ptr %61, align 8
  %63 = getelementptr inbounds i8, ptr %62, i64 120
  %64 = load ptr, ptr %63, align 8
  %65 = call ptr %64(ptr noundef nonnull %61) #7
  %.not = icmp eq ptr %65, null
  br i1 %.not, label %86, label %66

66:                                               ; preds = %50
  %67 = load ptr, ptr %2, align 8
  %68 = load ptr, ptr %67, align 8
  %69 = getelementptr inbounds i8, ptr %68, i64 48
  %70 = load ptr, ptr %69, align 8
  %71 = call ptr %70(ptr noundef nonnull %67, ptr noundef nonnull @.str.16) #7
  %72 = icmp eq ptr %71, null
  br i1 %72, label %93, label %73

73:                                               ; preds = %66
  %74 = load ptr, ptr %2, align 8
  %75 = load ptr, ptr %74, align 8
  %76 = getelementptr inbounds i8, ptr %75, i64 264
  %77 = load ptr, ptr %76, align 8
  %78 = call ptr %77(ptr noundef nonnull %74, ptr noundef nonnull %71, ptr noundef nonnull @.str.17, ptr noundef nonnull @.str.18) #7
  %79 = icmp eq ptr %78, null
  br i1 %79, label %93, label %80

80:                                               ; preds = %73
  %81 = load ptr, ptr %2, align 8
  %82 = load ptr, ptr %81, align 8
  %83 = getelementptr inbounds i8, ptr %82, i64 416
  %84 = load ptr, ptr %83, align 8
  %85 = call i64 (ptr, ptr, ptr, ...) %84(ptr noundef nonnull %81, ptr noundef nonnull %65, ptr noundef nonnull %78) #7
  br label %86

86:                                               ; preds = %80, %50
  %.030 = phi i64 [ %85, %80 ], [ 0, %50 ]
  br i1 %10, label %93, label %87

87:                                               ; preds = %86
  %88 = load ptr, ptr @jvm_j2pkcs11, align 8
  %89 = load ptr, ptr %88, align 8
  %90 = getelementptr inbounds i8, ptr %89, i64 40
  %91 = load ptr, ptr %90, align 8
  %92 = call i32 %91(ptr noundef nonnull %88) #7
  br label %93

93:                                               ; preds = %86, %87, %73, %66, %37, %30, %23, %16, %1
  %.0 = phi i64 [ 0, %1 ], [ 0, %16 ], [ 0, %23 ], [ 0, %30 ], [ 0, %37 ], [ 0, %66 ], [ 0, %73 ], [ %.030, %87 ], [ %.030, %86 ]
  ret i64 %.0
}